; Function Attrs: mustprogress nofree norecurse nosync nounwind willreturn memory(argmem: read) uwtable
define dso_local noundef nonnull align 8 dereferenceable(32) ptr @_ZN4llvm16AArch64InstrInfo13getLdStBaseOpERKNS_12MachineInstrE(ptr nocapture noundef nonnull readonly align 8 dereferenceable(70) %0) local_unnamed_addr #9 align 2 {
  %2 = getelementptr inbounds nuw i8, ptr %0, i64 68
  %3 = load i16, ptr %2, align 4
  switch i16 %3, label %_ZN4llvm16AArch64InstrInfo9isPreLdStERKNS_12MachineInstrE.exit.fold.split [
    i16 4363, label %_ZN4llvm16AArch64InstrInfo9isPreLdStERKNS_12MachineInstrE.exit
    i16 4360, label %_ZN4llvm16AArch64InstrInfo9isPreLdStERKNS_12MachineInstrE.exit
    i16 4354, label %_ZN4llvm16AArch64InstrInfo9isPreLdStERKNS_12MachineInstrE.exit
    i16 4357, label %_ZN4llvm16AArch64InstrInfo9isPreLdStERKNS_12MachineInstrE.exit
    i16 4366, label %_ZN4llvm16AArch64InstrInfo9isPreLdStERKNS_12MachineInstrE.exit
    i16 4369, label %_ZN4llvm16AArch64InstrInfo9isPreLdStERKNS_12MachineInstrE.exit
    i16 6743, label %_ZN4llvm16AArch64InstrInfo9isPreLdStERKNS_12MachineInstrE.exit
    i16 6737, label %_ZN4llvm16AArch64InstrInfo9isPreLdStERKNS_12MachineInstrE.exit
    i16 6740, label %_ZN4llvm16AArch64InstrInfo9isPreLdStERKNS_12MachineInstrE.exit
    i16 6746, label %_ZN4llvm16AArch64InstrInfo9isPreLdStERKNS_12MachineInstrE.exit
    i16 6749, label %_ZN4llvm16AArch64InstrInfo9isPreLdStERKNS_12MachineInstrE.exit
    i16 6649, label %_ZN4llvm16AArch64InstrInfo9isPreLdStERKNS_12MachineInstrE.exit
    i16 4442, label %_ZN4llvm16AArch64InstrInfo9isPreLdStERKNS_12MachineInstrE.exit
    i16 4448, label %_ZN4llvm16AArch64InstrInfo9isPreLdStERKNS_12MachineInstrE.exit
    i16 4430, label %_ZN4llvm16AArch64InstrInfo9isPreLdStERKNS_12MachineInstrE.exit
    i16 4436, label %_ZN4llvm16AArch64InstrInfo9isPreLdStERKNS_12MachineInstrE.exit
    i16 4388, label %_ZN4llvm16AArch64InstrInfo9isPreLdStERKNS_12MachineInstrE.exit
    i16 4404, label %_ZN4llvm16AArch64InstrInfo9isPreLdStERKNS_12MachineInstrE.exit
    i16 6788, label %_ZN4llvm16AArch64InstrInfo9isPreLdStERKNS_12MachineInstrE.exit
    i16 6793, label %_ZN4llvm16AArch64InstrInfo9isPreLdStERKNS_12MachineInstrE.exit
    i16 6783, label %_ZN4llvm16AArch64InstrInfo9isPreLdStERKNS_12MachineInstrE.exit
    i16 6763, label %_ZN4llvm16AArch64InstrInfo9isPreLdStERKNS_12MachineInstrE.exit
    i16 6778, label %_ZN4llvm16AArch64InstrInfo9isPreLdStERKNS_12MachineInstrE.exit
  ]

_ZN4llvm16AArch64InstrInfo9isPreLdStERKNS_12MachineInstrE.exit.fold.split: ; preds = %1
  br label %_ZN4llvm16AArch64InstrInfo9isPreLdStERKNS_12MachineInstrE.exit

_ZN4llvm16AArch64InstrInfo9isPreLdStERKNS_12MachineInstrE.exit: ; preds = %1, %1, %1, %1, %1, %1, %1, %1, %1, %1, %1, %1, %1, %1, %1, %1, %1, %1, %1, %1, %1, %1, %1, %_ZN4llvm16AArch64InstrInfo9isPreLdStERKNS_12MachineInstrE.exit.fold.split
  %4 = phi i64 [ 2, %1 ], [ 2, %1 ], [ 2, %1 ], [ 2, %1 ], [ 2, %1 ], [ 2, %1 ], [ 2, %1 ], [ 2, %1 ], [ 2, %1 ], [ 2, %1 ], [ 2, %1 ], [ 2, %1 ], [ 1, %_ZN4llvm16AArch64InstrInfo9isPreLdStERKNS_12MachineInstrE.exit.fold.split ], [ 2, %1 ], [ 2, %1 ], [ 2, %1 ], [ 2, %1 ], [ 2, %1 ], [ 2, %1 ], [ 2, %1 ], [ 2, %1 ], [ 2, %1 ], [ 2, %1 ], [ 2, %1 ]
  %5 = getelementptr inbounds nuw i8, ptr %0, i64 32
  %6 = load ptr, ptr %5, align 8
  %7 = getelementptr inbounds %"class.llvm::MachineOperand", ptr %6, i64 %4
  ret ptr %7
}